target datalayout = "e-m:e-p270:32:32-p271:32:32-p272:64:64-i64:64-i128:128-f80:128-n8:16:32:64-S128"
target triple = "x86_64-pc-linux-gnu"

%struct.ssl_connection_st = type { %struct.ssl_st, ptr, i32, ptr, ptr, ptr, i32, ptr, i32, i32, i32, i32, %struct.OSSL_TIME, %struct.OSSL_TIME, %struct.ossl_statem_st, i32, ptr, ptr, i64, i64, i64, %struct.ossl_quic_tls_callbacks_st, ptr, ptr, %struct.anon, ptr, ptr, ptr, i32, ptr, %struct.ssl_dane_st, ptr, ptr, ptr, ptr, i32, [64 x i8], [64 x i8], [64 x i8], [64 x i8], [64 x i8], [64 x i8], [64 x i8], [64 x i8], [64 x i8], [64 x i8], [64 x i8], [64 x i8], ptr, [64 x i8], i64, i32, i64, [32 x i8], ptr, ptr, ptr, i64, ptr, [32 x i8], i64, i32, ptr, ptr, i32, i32, ptr, ptr, ptr, ptr, ptr, i64, ptr, ptr, i64, i32, i32, i32, i64, i32, i32, i64, i64, i64, %struct.anon.1, ptr, i32, ptr, ptr, ptr, i32, ptr, ptr, ptr, i32, i32, i32, i32, ptr, i64, i32, ptr, %struct.srp_ctx_st, ptr, %struct.record_layer_st, ptr, ptr, ptr, ptr, i64, i32, i32, i32, i64, i64, i64, ptr, ptr, ptr, ptr, ptr, i64, ptr, i64, ptr, i64 }
%struct.ssl_st = type { i32, ptr, ptr, ptr, %struct.CRYPTO_REF_COUNT, ptr, %struct.crypto_ex_data_st }
%struct.CRYPTO_REF_COUNT = type { i32 }
%struct.crypto_ex_data_st = type { ptr, ptr }
%struct.OSSL_TIME = type { i64 }
%struct.ossl_statem_st = type { i32, i32, i32, i32, i32, i32, i32, i32, i32, i32, i32, i32, i32, ptr, ptr, ptr, i8 }
%struct.ossl_quic_tls_callbacks_st = type { ptr, ptr, ptr, ptr, ptr, ptr }
%struct.anon = type { i64, [32 x i8], [32 x i8], ptr, ptr, i32, i32, i32, i32, [2 x i8], i32, i32, i32, i32, %struct.anon.0, [64 x i8], i64, [64 x i8], i64, i32, i32, ptr, i64, ptr, i64, i32, i8, i8, i16, ptr, i16 }
%struct.anon.0 = type { [128 x i8], i64, [128 x i8], i64, i64, i32, ptr, ptr, [4 x ptr], [4 x i16], i64, i32, ptr, i64, ptr, i64, ptr, ptr, ptr, i32, i64, ptr, i32, ptr, i64, ptr, i64, ptr, i64, ptr, ptr, ptr, ptr, i64, i64, ptr, ptr, i32, i32, i32, i32 }
%struct.ssl_dane_st = type { ptr, ptr, ptr, ptr, ptr, i32, i32, i32, i64 }
%struct.anon.1 = type { [29 x i8], ptr, ptr, ptr, i32, ptr, i16, i32, %struct.anon.2, i32, i32, i64, ptr, i64, ptr, i64, ptr, i64, ptr, i64, ptr, i64, ptr, ptr, ptr, ptr, ptr, ptr, ptr, i64, ptr, i64, i32, i32, i32, i32, ptr, i64, i32, i8, i32, [4 x i32], i32, i8, i8, i8, i8 }
%struct.anon.2 = type { ptr, ptr, ptr, i64 }
%struct.srp_ctx_st = type { ptr, ptr, ptr, ptr, ptr, ptr, ptr, ptr, ptr, ptr, ptr, ptr, ptr, ptr, i32, i64 }
%struct.record_layer_st = type { ptr, ptr, ptr, ptr, ptr, ptr, ptr, ptr, i64, i32, i64, [4 x i8], i64, i64, i8, ptr, i32, ptr, ptr, ptr, i64, i64, i64, i64, [32 x %struct.tls_record_st] }
%struct.tls_record_st = type { ptr, i32, i8, ptr, ptr, i64, i64, i16, [8 x i8] }
%struct.dtls1_state_st = type { [255 x i8], i64, i32, i16, i16, i16, ptr, ptr, i64, i64, %struct.hm_header_st, %struct.hm_header_st, i32, %struct.OSSL_TIME, i32, i32, ptr }
%struct.hm_header_st = type { i8, i64, i16, i64, i64, i32, %struct.dtls1_retransmit_state }
%struct.dtls1_retransmit_state = type { ptr, ptr }
%struct.PACKET = type { ptr, i64 }

@.str = private unnamed_addr constant [36 x i8] c"../openssl/ssl/statem/statem_clnt.c\00", align 1
@__func__.dtls_process_hello_verify = private unnamed_addr constant [26 x i8] c"dtls_process_hello_verify\00", align 1

; Function Attrs: inlinehint nounwind uwtable
define internal i32 @PACKET_peek_bytes(ptr noundef %0, ptr noundef %1, i64 noundef %2) #2 {
  %4 = alloca i32, align 4
  %5 = alloca ptr, align 8
  %6 = alloca ptr, align 8
  %7 = alloca i64, align 8
  store ptr %0, ptr %5, align 8, !tbaa !125
  store ptr %1, ptr %6, align 8, !tbaa !236
  store i64 %2, ptr %7, align 8, !tbaa !98
  %8 = load ptr, ptr %5, align 8, !tbaa !125
  %9 = call i64 @PACKET_remaining(ptr noundef %8)
  %10 = load i64, ptr %7, align 8, !tbaa !98
  %11 = icmp ult i64 %9, %10
  br i1 %11, label %12, label %13

12:                                               ; preds = %3
  store i32 0, ptr %4, align 4
  br label %18

13:                                               ; preds = %3
  %14 = load ptr, ptr %5, align 8, !tbaa !125
  %15 = getelementptr inbounds nuw %struct.PACKET, ptr %14, i32 0, i32 0
  %16 = load ptr, ptr %15, align 8, !tbaa !233
  %17 = load ptr, ptr %6, align 8, !tbaa !236
  store ptr %16, ptr %17, align 8, !tbaa !122
  store i32 1, ptr %4, align 4
  br label %18

18:                                               ; preds = %13, %12
  %19 = load i32, ptr %4, align 4
  ret i32 %19
}

; Function Attrs: inlinehint nounwind uwtable
define internal i32 @PACKET_peek_1(ptr noundef %0, ptr noundef %1) #2 {
  %3 = alloca i32, align 4
  %4 = alloca ptr, align 8
  %5 = alloca ptr, align 8
  store ptr %0, ptr %4, align 8, !tbaa !125
  store ptr %1, ptr %5, align 8, !tbaa !126
  %6 = load ptr, ptr %4, align 8, !tbaa !125
  %7 = call i64 @PACKET_remaining(ptr noundef %6)
  %8 = icmp ne i64 %7, 0
  br i1 %8, label %10, label %9

9:                                                ; preds = %2
  store i32 0, ptr %3, align 4
  br label %17

10:                                               ; preds = %2
  %11 = load ptr, ptr %4, align 8, !tbaa !125
  %12 = getelementptr inbounds nuw %struct.PACKET, ptr %11, i32 0, i32 0
  %13 = load ptr, ptr %12, align 8, !tbaa !233
  %14 = load i8, ptr %13, align 1, !tbaa !133
  %15 = zext i8 %14 to i32
  %16 = load ptr, ptr %5, align 8, !tbaa !126
  store i32 %15, ptr %16, align 4, !tbaa !8
  store i32 1, ptr %3, align 4
  br label %17

17:                                               ; preds = %10, %9
  %18 = load i32, ptr %3, align 4
  ret i32 %18
}

; Function Attrs: inlinehint nounwind uwtable
define internal i32 @PACKET_peek_copy_bytes(ptr noundef %0, ptr noundef %1, i64 noundef %2) #2 {
  %4 = alloca i32, align 4
  %5 = alloca ptr, align 8
  %6 = alloca ptr, align 8
  %7 = alloca i64, align 8
  store ptr %0, ptr %5, align 8, !tbaa !125
  store ptr %1, ptr %6, align 8, !tbaa !122
  store i64 %2, ptr %7, align 8, !tbaa !98
  %8 = load ptr, ptr %5, align 8, !tbaa !125
  %9 = call i64 @PACKET_remaining(ptr noundef %8)
  %10 = load i64, ptr %7, align 8, !tbaa !98
  %11 = icmp ult i64 %9, %10
  br i1 %11, label %12, label %13

12:                                               ; preds = %3
  store i32 0, ptr %4, align 4
  br label %19

13:                                               ; preds = %3
  %14 = load ptr, ptr %6, align 8, !tbaa !122
  %15 = load ptr, ptr %5, align 8, !tbaa !125
  %16 = getelementptr inbounds nuw %struct.PACKET, ptr %15, i32 0, i32 0
  %17 = load ptr, ptr %16, align 8, !tbaa !233
  %18 = load i64, ptr %7, align 8, !tbaa !98
  call void @llvm.memcpy.p0.p0.i64(ptr align 1 %14, ptr align 1 %17, i64 %18, i1 false)
  store i32 1, ptr %4, align 4
  br label %19

19:                                               ; preds = %13, %12
  %20 = load i32, ptr %4, align 4
  ret i32 %20
}

; Function Attrs: inlinehint nounwind uwtable
define internal i32 @PACKET_get_bytes(ptr noundef %0, ptr noundef %1, i64 noundef %2) #2 {
  %4 = alloca i32, align 4
  %5 = alloca ptr, align 8
  %6 = alloca ptr, align 8
  %7 = alloca i64, align 8
  store ptr %0, ptr %5, align 8, !tbaa !125
  store ptr %1, ptr %6, align 8, !tbaa !236
  store i64 %2, ptr %7, align 8, !tbaa !98
  %8 = load ptr, ptr %5, align 8, !tbaa !125
  %9 = load ptr, ptr %6, align 8, !tbaa !236
  %10 = load i64, ptr %7, align 8, !tbaa !98
  %11 = call i32 @PACKET_peek_bytes(ptr noundef %8, ptr noundef %9, i64 noundef %10)
  %12 = icmp ne i32 %11, 0
  br i1 %12, label %14, label %13

13:                                               ; preds = %3
  store i32 0, ptr %4, align 4
  br label %17

14:                                               ; preds = %3
  %15 = load ptr, ptr %5, align 8, !tbaa !125
  %16 = load i64, ptr %7, align 8, !tbaa !98
  call void @packet_forward(ptr noundef %15, i64 noundef %16)
  store i32 1, ptr %4, align 4
  br label %17

17:                                               ; preds = %14, %13
  %18 = load i32, ptr %4, align 4
  ret i32 %18
}

; Function Attrs: inlinehint nounwind uwtable
define internal i32 @PACKET_get_1(ptr noundef %0, ptr noundef %1) #2 {
  %3 = alloca i32, align 4
  %4 = alloca ptr, align 8
  %5 = alloca ptr, align 8
  store ptr %0, ptr %4, align 8, !tbaa !125
  store ptr %1, ptr %5, align 8, !tbaa !126
  %6 = load ptr, ptr %4, align 8, !tbaa !125
  %7 = load ptr, ptr %5, align 8, !tbaa !126
  %8 = call i32 @PACKET_peek_1(ptr noundef %6, ptr noundef %7)
  %9 = icmp ne i32 %8, 0
  br i1 %9, label %11, label %10

10:                                               ; preds = %2
  store i32 0, ptr %3, align 4
  br label %13

11:                                               ; preds = %2
  %12 = load ptr, ptr %4, align 8, !tbaa !125
  call void @packet_forward(ptr noundef %12, i64 noundef 1)
  store i32 1, ptr %3, align 4
  br label %13

13:                                               ; preds = %11, %10
  %14 = load i32, ptr %3, align 4
  ret i32 %14
}

; Function Attrs: inlinehint nounwind uwtable
define internal void @packet_forward(ptr noundef %0, i64 noundef %1) #2 {
  %3 = alloca ptr, align 8
  %4 = alloca i64, align 8
  store ptr %0, ptr %3, align 8, !tbaa !125
  store i64 %1, ptr %4, align 8, !tbaa !98
  %5 = load i64, ptr %4, align 8, !tbaa !98
  %6 = load ptr, ptr %3, align 8, !tbaa !125
  %7 = getelementptr inbounds nuw %struct.PACKET, ptr %6, i32 0, i32 0
  %8 = load ptr, ptr %7, align 8, !tbaa !233
  %9 = getelementptr inbounds nuw i8, ptr %8, i64 %5
  store ptr %9, ptr %7, align 8, !tbaa !233
  %10 = load i64, ptr %4, align 8, !tbaa !98
  %11 = load ptr, ptr %3, align 8, !tbaa !125
  %12 = getelementptr inbounds nuw %struct.PACKET, ptr %11, i32 0, i32 1
  %13 = load i64, ptr %12, align 8, !tbaa !235
  %14 = sub i64 %13, %10
  store i64 %14, ptr %12, align 8, !tbaa !235
  ret void
}

; Function Attrs: inlinehint nounwind uwtable
define internal i32 @PACKET_copy_bytes(ptr noundef %0, ptr noundef %1, i64 noundef %2) #2 {
  %4 = alloca i32, align 4
  %5 = alloca ptr, align 8
  %6 = alloca ptr, align 8
  %7 = alloca i64, align 8
  store ptr %0, ptr %5, align 8, !tbaa !125
  store ptr %1, ptr %6, align 8, !tbaa !122
  store i64 %2, ptr %7, align 8, !tbaa !98
  %8 = load ptr, ptr %5, align 8, !tbaa !125
  %9 = load ptr, ptr %6, align 8, !tbaa !122
  %10 = load i64, ptr %7, align 8, !tbaa !98
  %11 = call i32 @PACKET_peek_copy_bytes(ptr noundef %8, ptr noundef %9, i64 noundef %10)
  %12 = icmp ne i32 %11, 0
  br i1 %12, label %14, label %13

13:                                               ; preds = %3
  store i32 0, ptr %4, align 4
  br label %17

14:                                               ; preds = %3
  %15 = load ptr, ptr %5, align 8, !tbaa !125
  %16 = load i64, ptr %7, align 8, !tbaa !98
  call void @packet_forward(ptr noundef %15, i64 noundef %16)
  store i32 1, ptr %4, align 4
  br label %17

17:                                               ; preds = %14, %13
  %18 = load i32, ptr %4, align 4
  ret i32 %18
}

; Function Attrs: inlinehint nounwind uwtable
define internal i64 @PACKET_remaining(ptr noundef %0) #2 {
  %2 = alloca ptr, align 8
  store ptr %0, ptr %2, align 8, !tbaa !125
  %3 = load ptr, ptr %2, align 8, !tbaa !125
  %4 = getelementptr inbounds nuw %struct.PACKET, ptr %3, i32 0, i32 1
  %5 = load i64, ptr %4, align 8, !tbaa !235
  ret i64 %5
}

; Function Attrs: inlinehint nounwind uwtable
define internal i32 @PACKET_get_length_prefixed_1(ptr noundef %0, ptr noundef %1) #2 {
  %3 = alloca i32, align 4
  %4 = alloca ptr, align 8
  %5 = alloca ptr, align 8
  %6 = alloca i32, align 4
  %7 = alloca ptr, align 8
  %8 = alloca %struct.PACKET, align 8
  %9 = alloca i32, align 4
  store ptr %0, ptr %4, align 8, !tbaa !125
  store ptr %1, ptr %5, align 8, !tbaa !125
  call void @llvm.lifetime.start.p0(i64 4, ptr %6) #8
  call void @llvm.lifetime.start.p0(i64 8, ptr %7) #8
  call void @llvm.lifetime.start.p0(i64 16, ptr %8) #8
  %10 = load ptr, ptr %4, align 8, !tbaa !125
  call void @llvm.memcpy.p0.p0.i64(ptr align 8 %8, ptr align 8 %10, i64 16, i1 false), !tbaa.struct !199
  %11 = call i32 @PACKET_get_1(ptr noundef %8, ptr noundef %6)
  %12 = icmp ne i32 %11, 0
  br i1 %12, label %13, label %18

13:                                               ; preds = %2
  %14 = load i32, ptr %6, align 4, !tbaa !8
  %15 = zext i32 %14 to i64
  %16 = call i32 @PACKET_get_bytes(ptr noundef %8, ptr noundef %7, i64 noundef %15)
  %17 = icmp ne i32 %16, 0
  br i1 %17, label %19, label %18

18:                                               ; preds = %13, %2
  store i32 0, ptr %3, align 4
  store i32 1, ptr %9, align 4
  br label %28

19:                                               ; preds = %13
  %20 = load ptr, ptr %4, align 8, !tbaa !125
  call void @llvm.memcpy.p0.p0.i64(ptr align 8 %20, ptr align 8 %8, i64 16, i1 false), !tbaa.struct !199
  %21 = load ptr, ptr %7, align 8, !tbaa !122
  %22 = load ptr, ptr %5, align 8, !tbaa !125
  %23 = getelementptr inbounds nuw %struct.PACKET, ptr %22, i32 0, i32 0
  store ptr %21, ptr %23, align 8, !tbaa !233
  %24 = load i32, ptr %6, align 4, !tbaa !8
  %25 = zext i32 %24 to i64
  %26 = load ptr, ptr %5, align 8, !tbaa !125
  %27 = getelementptr inbounds nuw %struct.PACKET, ptr %26, i32 0, i32 1
  store i64 %25, ptr %27, align 8, !tbaa !235
  store i32 1, ptr %3, align 4
  store i32 1, ptr %9, align 4
  br label %28

28:                                               ; preds = %19, %18
  call void @llvm.lifetime.end.p0(i64 16, ptr %8) #8
  call void @llvm.lifetime.end.p0(i64 8, ptr %7) #8
  call void @llvm.lifetime.end.p0(i64 4, ptr %6) #8
  %29 = load i32, ptr %3, align 4
  ret i32 %29
}

; Function Attrs: inlinehint nounwind uwtable
define internal i32 @PACKET_forward(ptr noundef %0, i64 noundef %1) #2 {
  %3 = alloca i32, align 4
  %4 = alloca ptr, align 8
  %5 = alloca i64, align 8
  store ptr %0, ptr %4, align 8, !tbaa !125
  store i64 %1, ptr %5, align 8, !tbaa !98
  %6 = load ptr, ptr %4, align 8, !tbaa !125
  %7 = call i64 @PACKET_remaining(ptr noundef %6)
  %8 = load i64, ptr %5, align 8, !tbaa !98
  %9 = icmp ult i64 %7, %8
  br i1 %9, label %10, label %11

10:                                               ; preds = %2
  store i32 0, ptr %3, align 4
  br label %14

11:                                               ; preds = %2
  %12 = load ptr, ptr %4, align 8, !tbaa !125
  %13 = load i64, ptr %5, align 8, !tbaa !98
  call void @packet_forward(ptr noundef %12, i64 noundef %13)
  store i32 1, ptr %3, align 4
  br label %14

14:                                               ; preds = %11, %10
  %15 = load i32, ptr %3, align 4
  ret i32 %15
}

; Function Attrs: nounwind uwtable
define i32 @dtls_process_hello_verify(ptr noundef %0, ptr noundef %1) #0 {
  %3 = alloca i32, align 4
  %4 = alloca ptr, align 8
  %5 = alloca ptr, align 8
  %6 = alloca i64, align 8
  %7 = alloca %struct.PACKET, align 8
  %8 = alloca i32, align 4
  store ptr %0, ptr %4, align 8, !tbaa !3
  store ptr %1, ptr %5, align 8, !tbaa !125
  call void @llvm.lifetime.start.p0(i64 8, ptr %6) #8
  call void @llvm.lifetime.start.p0(i64 16, ptr %7) #8
  %9 = load ptr, ptr %5, align 8, !tbaa !125
  %10 = call i32 @PACKET_forward(ptr noundef %9, i64 noundef 2)
  %11 = icmp ne i32 %10, 0
  br i1 %11, label %12, label %16

12:                                               ; preds = %2
  %13 = load ptr, ptr %5, align 8, !tbaa !125
  %14 = call i32 @PACKET_get_length_prefixed_1(ptr noundef %13, ptr noundef %7)
  %15 = icmp ne i32 %14, 0
  br i1 %15, label %18, label %16

16:                                               ; preds = %12, %2
  call void @ERR_new()
  call void @ERR_set_debug(ptr noundef @.str, i32 noundef 1360, ptr noundef @__func__.dtls_process_hello_verify)
  %17 = load ptr, ptr %4, align 8, !tbaa !3
  call void (ptr, i32, i32, ptr, ...) @ossl_statem_fatal(ptr noundef %17, i32 noundef 50, i32 noundef 159, ptr noundef null)
  store i32 0, ptr %3, align 4
  store i32 1, ptr %8, align 4
  br label %41

18:                                               ; preds = %12
  %19 = call i64 @PACKET_remaining(ptr noundef %7)
  store i64 %19, ptr %6, align 8, !tbaa !98
  %20 = load i64, ptr %6, align 8, !tbaa !98
  %21 = icmp ugt i64 %20, 255
  br i1 %21, label %22, label %24

22:                                               ; preds = %18
  call void @ERR_new()
  call void @ERR_set_debug(ptr noundef @.str, i32 noundef 1366, ptr noundef @__func__.dtls_process_hello_verify)
  %23 = load ptr, ptr %4, align 8, !tbaa !3
  call void (ptr, i32, i32, ptr, ...) @ossl_statem_fatal(ptr noundef %23, i32 noundef 47, i32 noundef 404, ptr noundef null)
  store i32 0, ptr %3, align 4
  store i32 1, ptr %8, align 4
  br label %41

24:                                               ; preds = %18
  %25 = load ptr, ptr %4, align 8, !tbaa !3
  %26 = getelementptr inbounds nuw %struct.ssl_connection_st, ptr %25, i32 0, i32 25
  %27 = load ptr, ptr %26, align 8, !tbaa !155
  %28 = getelementptr inbounds nuw %struct.dtls1_state_st, ptr %27, i32 0, i32 0
  %29 = getelementptr inbounds [255 x i8], ptr %28, i64 0, i64 0
  %30 = load i64, ptr %6, align 8, !tbaa !98
  %31 = call i32 @PACKET_copy_bytes(ptr noundef %7, ptr noundef %29, i64 noundef %30)
  %32 = icmp ne i32 %31, 0
  br i1 %32, label %35, label %33

33:                                               ; preds = %24
  call void @ERR_new()
  call void @ERR_set_debug(ptr noundef @.str, i32 noundef 1371, ptr noundef @__func__.dtls_process_hello_verify)
  %34 = load ptr, ptr %4, align 8, !tbaa !3
  call void (ptr, i32, i32, ptr, ...) @ossl_statem_fatal(ptr noundef %34, i32 noundef 50, i32 noundef 159, ptr noundef null)
  store i32 0, ptr %3, align 4
  store i32 1, ptr %8, align 4
  br label %41

35:                                               ; preds = %24
  %36 = load i64, ptr %6, align 8, !tbaa !98
  %37 = load ptr, ptr %4, align 8, !tbaa !3
  %38 = getelementptr inbounds nuw %struct.ssl_connection_st, ptr %37, i32 0, i32 25
  %39 = load ptr, ptr %38, align 8, !tbaa !155
  %40 = getelementptr inbounds nuw %struct.dtls1_state_st, ptr %39, i32 0, i32 1
  store i64 %36, ptr %40, align 8, !tbaa !156
  store i32 1, ptr %3, align 4
  store i32 1, ptr %8, align 4
  br label %41

41:                                               ; preds = %35, %33, %22, %16
  call void @llvm.lifetime.end.p0(i64 16, ptr %7) #8
  call void @llvm.lifetime.end.p0(i64 8, ptr %6) #8
  %42 = load i32, ptr %3, align 4
  ret i32 %42
}