; Function Attrs: nounwind uwtable
define range(i32 0, 2) i32 @dtls_process_hello_verify(ptr noundef %0, ptr noundef captures(none) %1) local_unnamed_addr #0 {
  %3 = getelementptr i8, ptr %1, i64 8
  %.val.i = load i64, ptr %3, align 8, !tbaa !176
  %4 = icmp ult i64 %.val.i, 2
  br i1 %4, label %PACKET_forward.exit.thread, label %5

5:                                                ; preds = %2
  %6 = load ptr, ptr %1, align 8, !tbaa !178
  %7 = getelementptr inbounds nuw i8, ptr %6, i64 2
  store ptr %7, ptr %1, align 8, !tbaa !178
  %8 = add i64 %.val.i, -2
  store i64 %8, ptr %3, align 8, !tbaa !176
  %.not.i.i.i = icmp eq i64 %8, 0
  br i1 %.not.i.i.i, label %PACKET_forward.exit.thread, label %9

9:                                                ; preds = %5
  %10 = load i8, ptr %7, align 1, !tbaa !125
  %11 = add i64 %.val.i, -3
  %12 = zext i8 %10 to i64
  %13 = icmp ult i64 %11, %12
  br i1 %13, label %PACKET_forward.exit.thread, label %14

PACKET_forward.exit.thread:                       ; preds = %9, %5, %2
  tail call void @ERR_new() #8
  tail call void @ERR_set_debug(ptr noundef nonnull @.str, i32 noundef 1360, ptr noundef nonnull @__func__.dtls_process_hello_verify) #8
  tail call void (ptr, i32, i32, ptr, ...) @ossl_statem_fatal(ptr noundef %0, i32 noundef 50, i32 noundef 159, ptr noundef null) #8
  br label %22

14:                                               ; preds = %9
  %15 = getelementptr inbounds nuw i8, ptr %6, i64 3
  %16 = getelementptr inbounds nuw i8, ptr %15, i64 %12
  %17 = sub nuw i64 %11, %12
  store ptr %16, ptr %1, align 8, !tbaa !168
  store i64 %17, ptr %3, align 8, !tbaa !101
  %18 = getelementptr inbounds nuw i8, ptr %0, i64 1264
  %19 = load ptr, ptr %18, align 8, !tbaa !145
  tail call void @llvm.memcpy.p0.p0.i64(ptr align 1 %19, ptr nonnull align 1 %15, i64 %12, i1 false)
  %20 = load ptr, ptr %18, align 8, !tbaa !145
  %21 = getelementptr inbounds nuw i8, ptr %20, i64 256
  store i64 %12, ptr %21, align 8, !tbaa !146
  br label %22

22:                                               ; preds = %14, %PACKET_forward.exit.thread
  %.0 = phi i32 [ 1, %14 ], [ 0, %PACKET_forward.exit.thread ]
  ret i32 %.0
}